; Function Attrs: nounwind sspstrong uwtable
define internal i32 @mac_icr_read(ptr noundef %s, i32 %index) #0 {
entry:
  %arrayidx = getelementptr i8, ptr %s, i64 11568
  %0 = load i32, ptr %arrayidx, align 16
  %call.i.i = tail call ptr @object_dynamic_cast_assert(ptr noundef %s, ptr noundef nonnull @.str.1, ptr noundef nonnull @.str.15, i32 noundef 10, ptr noundef nonnull @__func__.PCI_DEVICE) #13
  store i32 0, ptr %arrayidx, align 16
  %arrayidx2.i = getelementptr i8, ptr %s, i64 11576
  store i32 0, ptr %arrayidx2.i, align 8
  %mit_irq_level.i = getelementptr inbounds nuw i8, ptr %s, i64 208537
  store i8 0, ptr %mit_irq_level.i, align 1
  tail call void @pci_set_irq(ptr noundef %call.i.i, i32 noundef 0) #13
  ret i32 %0
}